target datalayout = "e-m:e-p270:32:32-p271:32:32-p272:64:64-i64:64-i128:128-f80:128-n8:16:32:64-S128"
target triple = "x86_64-pc-linux-gnu"

%struct._zval_struct = type { %union._zend_value, %union.anon, %union.anon.3 }
%union._zend_value = type { i64 }
%union.anon = type { i32 }
%union.anon.3 = type { i32 }
%struct._sccp_ctx = type { %struct._scdf_ctx, ptr, ptr, %struct._zval_struct, %struct._zval_struct }
%struct._scdf_ctx = type { ptr, ptr, ptr, ptr, ptr, ptr, ptr, i32, i32, i32, %struct.anon }
%struct.anon = type { ptr, ptr, ptr }
%struct._zend_ssa = type { %struct._zend_cfg, i32, i32, ptr, ptr, ptr, ptr }
%struct._zend_cfg = type { i32, i32, ptr, ptr, ptr, i32 }
%struct._zend_ssa_var = type { i32, i32, i32, i32, ptr, ptr, ptr, i8 }
%struct._zend_ssa_range = type { i64, i64, i8, i8 }
%struct.anon.1 = type { i8, i8, %union.anon.2 }
%union.anon.2 = type { i16 }
%struct._zend_ssa_phi = type { ptr, i32, %union._zend_ssa_pi_constraint, i32, i32, i32, i8, ptr, ptr, ptr }
%union._zend_ssa_pi_constraint = type { %struct._zend_ssa_range_constraint }
%struct._zend_ssa_range_constraint = type { %struct._zend_ssa_range, i32, i32, i32, i32, i32 }
%struct._zend_basic_block = type { ptr, i32, i32, i32, i32, i32, i32, i32, i32, i32, i32, i32, [2 x i32] }

; Function Attrs: nounwind uwtable
define internal zeroext i1 @zend_bitset_in(ptr noundef %0, i32 noundef %1) #0 {
  %3 = alloca ptr, align 8
  %4 = alloca i32, align 4
  store ptr %0, ptr %3, align 8
  store i32 %1, ptr %4, align 4
  %5 = load ptr, ptr %3, align 8
  %6 = load i32, ptr %4, align 4
  %7 = zext i32 %6 to i64
  %8 = udiv i64 %7, 64
  %9 = getelementptr inbounds i64, ptr %5, i64 %8
  %10 = load i64, ptr %9, align 8
  %11 = load i32, ptr %4, align 4
  %12 = zext i32 %11 to i64
  %13 = and i64 %12, 63
  %14 = lshr i64 %10, %13
  %15 = and i64 %14, 1
  %16 = icmp ne i64 %15, 0
  ret i1 %16
}

; Function Attrs: nounwind uwtable
define internal i32 @scdf_edge(ptr noundef %0, i32 noundef %1, i32 noundef %2) #0 {
  %4 = alloca ptr, align 8
  %5 = alloca i32, align 4
  %6 = alloca i32, align 4
  %7 = alloca ptr, align 8
  %8 = alloca i32, align 4
  %9 = alloca i32, align 4
  store ptr %0, ptr %4, align 8
  store i32 %1, ptr %5, align 4
  store i32 %2, ptr %6, align 4
  %10 = load ptr, ptr %4, align 8
  %11 = getelementptr inbounds %struct._zend_cfg, ptr %10, i32 0, i32 2
  %12 = load ptr, ptr %11, align 8
  %13 = load i32, ptr %6, align 4
  %14 = sext i32 %13 to i64
  %15 = getelementptr inbounds %struct._zend_basic_block, ptr %12, i64 %14
  store ptr %15, ptr %7, align 8
  store i32 0, ptr %8, align 4
  br label %16

16:                                               ; preds = %40, %3
  %17 = load i32, ptr %8, align 4
  %18 = load ptr, ptr %7, align 8
  %19 = getelementptr inbounds %struct._zend_basic_block, ptr %18, i32 0, i32 5
  %20 = load i32, ptr %19, align 8
  %21 = icmp slt i32 %17, %20
  br i1 %21, label %22, label %43

22:                                               ; preds = %16
  %23 = load ptr, ptr %7, align 8
  %24 = getelementptr inbounds %struct._zend_basic_block, ptr %23, i32 0, i32 6
  %25 = load i32, ptr %24, align 4
  %26 = load i32, ptr %8, align 4
  %27 = add nsw i32 %25, %26
  store i32 %27, ptr %9, align 4
  %28 = load ptr, ptr %4, align 8
  %29 = getelementptr inbounds %struct._zend_cfg, ptr %28, i32 0, i32 3
  %30 = load ptr, ptr %29, align 8
  %31 = load i32, ptr %9, align 4
  %32 = zext i32 %31 to i64
  %33 = getelementptr inbounds i32, ptr %30, i64 %32
  %34 = load i32, ptr %33, align 4
  %35 = load i32, ptr %5, align 4
  %36 = icmp eq i32 %34, %35
  br i1 %36, label %37, label %39

37:                                               ; preds = %22
  %38 = load i32, ptr %9, align 4
  ret i32 %38

39:                                               ; preds = %22
  br label %40

40:                                               ; preds = %39
  %41 = load i32, ptr %8, align 4
  %42 = add nsw i32 %41, 1
  store i32 %42, ptr %8, align 4
  br label %16

43:                                               ; preds = %16
  unreachable
}

; Function Attrs: nounwind uwtable
define internal zeroext i1 @scdf_is_edge_feasible(ptr noundef %0, i32 noundef %1, i32 noundef %2) #0 {
  %4 = alloca ptr, align 8
  %5 = alloca i32, align 4
  %6 = alloca i32, align 4
  %7 = alloca i32, align 4
  store ptr %0, ptr %4, align 8
  store i32 %1, ptr %5, align 4
  store i32 %2, ptr %6, align 4
  %8 = load ptr, ptr %4, align 8
  %9 = getelementptr inbounds %struct._scdf_ctx, ptr %8, i32 0, i32 1
  %10 = load ptr, ptr %9, align 8
  %11 = getelementptr inbounds %struct._zend_ssa, ptr %10, i32 0, i32 0
  %12 = load i32, ptr %5, align 4
  %13 = load i32, ptr %6, align 4
  %14 = call i32 @scdf_edge(ptr noundef %11, i32 noundef %12, i32 noundef %13)
  store i32 %14, ptr %7, align 4
  %15 = load ptr, ptr %4, align 8
  %16 = getelementptr inbounds %struct._scdf_ctx, ptr %15, i32 0, i32 6
  %17 = load ptr, ptr %16, align 8
  %18 = load i32, ptr %7, align 4
  %19 = call zeroext i1 @zend_bitset_in(ptr noundef %17, i32 noundef %18)
  ret i1 %19
}

; Function Attrs: nounwind uwtable
define internal void @sccp_visit_phi(ptr noundef %0, ptr noundef %1) #0 {
  %3 = alloca ptr, align 8
  %4 = alloca ptr, align 8
  %5 = alloca ptr, align 8
  %6 = alloca ptr, align 8
  %7 = alloca ptr, align 8
  %8 = alloca ptr, align 8
  %9 = alloca ptr, align 8
  %10 = alloca ptr, align 8
  %11 = alloca ptr, align 8
  %12 = alloca ptr, align 8
  %13 = alloca i32, align 4
  %14 = alloca %struct._zval_struct, align 8
  store ptr %0, ptr %7, align 8
  store ptr %1, ptr %8, align 8
  %15 = load ptr, ptr %7, align 8
  store ptr %15, ptr %9, align 8
  %16 = load ptr, ptr %7, align 8
  %17 = getelementptr inbounds %struct._scdf_ctx, ptr %16, i32 0, i32 1
  %18 = load ptr, ptr %17, align 8
  store ptr %18, ptr %10, align 8
  %19 = load ptr, ptr %8, align 8
  %20 = getelementptr inbounds %struct._zend_ssa_phi, ptr %19, i32 0, i32 4
  %21 = load i32, ptr %20, align 4
  %22 = icmp sge i32 %21, 0
  call void @llvm.assume(i1 %22)
  %23 = load ptr, ptr %9, align 8
  %24 = getelementptr inbounds %struct._sccp_ctx, ptr %23, i32 0, i32 2
  %25 = load ptr, ptr %24, align 8
  %26 = load ptr, ptr %8, align 8
  %27 = getelementptr inbounds %struct._zend_ssa_phi, ptr %26, i32 0, i32 4
  %28 = load i32, ptr %27, align 4
  %29 = sext i32 %28 to i64
  %30 = getelementptr inbounds %struct._zval_struct, ptr %25, i64 %29
  store ptr %30, ptr %6, align 8
  %31 = load ptr, ptr %6, align 8
  %32 = getelementptr inbounds %struct._zval_struct, ptr %31, i32 0, i32 1
  %33 = load i8, ptr %32, align 8
  %34 = zext i8 %33 to i32
  %35 = icmp eq i32 %34, 254
  br i1 %35, label %193, label %36

36:                                               ; preds = %2
  %37 = load ptr, ptr %10, align 8
  %38 = getelementptr inbounds %struct._zend_ssa, ptr %37, i32 0, i32 0
  %39 = getelementptr inbounds %struct._zend_cfg, ptr %38, i32 0, i32 2
  %40 = load ptr, ptr %39, align 8
  %41 = load ptr, ptr %8, align 8
  %42 = getelementptr inbounds %struct._zend_ssa_phi, ptr %41, i32 0, i32 5
  %43 = load i32, ptr %42, align 8
  %44 = sext i32 %43 to i64
  %45 = getelementptr inbounds %struct._zend_basic_block, ptr %40, i64 %44
  store ptr %45, ptr %11, align 8
  %46 = load ptr, ptr %10, align 8
  %47 = getelementptr inbounds %struct._zend_ssa, ptr %46, i32 0, i32 0
  %48 = getelementptr inbounds %struct._zend_cfg, ptr %47, i32 0, i32 3
  %49 = load ptr, ptr %48, align 8
  %50 = load ptr, ptr %11, align 8
  %51 = getelementptr inbounds %struct._zend_basic_block, ptr %50, i32 0, i32 6
  %52 = load i32, ptr %51, align 4
  %53 = sext i32 %52 to i64
  %54 = getelementptr inbounds i32, ptr %49, i64 %53
  store ptr %54, ptr %12, align 8
  %55 = getelementptr inbounds %struct._zval_struct, ptr %14, i32 0, i32 1
  store i32 255, ptr %55, align 8
  %56 = load ptr, ptr %8, align 8
  %57 = getelementptr inbounds %struct._zend_ssa_phi, ptr %56, i32 0, i32 1
  %58 = load i32, ptr %57, align 8
  %59 = icmp sge i32 %58, 0
  br i1 %59, label %60, label %101

60:                                               ; preds = %36
  %61 = load ptr, ptr %8, align 8
  %62 = getelementptr inbounds %struct._zend_ssa_phi, ptr %61, i32 0, i32 9
  %63 = load ptr, ptr %62, align 8
  %64 = getelementptr inbounds i32, ptr %63, i64 0
  %65 = load i32, ptr %64, align 4
  %66 = icmp sge i32 %65, 0
  call void @llvm.assume(i1 %66)
  %67 = load ptr, ptr %7, align 8
  %68 = load ptr, ptr %8, align 8
  %69 = getelementptr inbounds %struct._zend_ssa_phi, ptr %68, i32 0, i32 1
  %70 = load i32, ptr %69, align 8
  %71 = load ptr, ptr %8, align 8
  %72 = getelementptr inbounds %struct._zend_ssa_phi, ptr %71, i32 0, i32 5
  %73 = load i32, ptr %72, align 8
  %74 = call zeroext i1 @scdf_is_edge_feasible(ptr noundef %67, i32 noundef %70, i32 noundef %73)
  br i1 %74, label %75, label %100

75:                                               ; preds = %60
  %76 = load ptr, ptr %9, align 8
  %77 = getelementptr inbounds %struct._sccp_ctx, ptr %76, i32 0, i32 2
  %78 = load ptr, ptr %77, align 8
  %79 = load ptr, ptr %8, align 8
  %80 = getelementptr inbounds %struct._zend_ssa_phi, ptr %79, i32 0, i32 9
  %81 = load ptr, ptr %80, align 8
  %82 = getelementptr inbounds i32, ptr %81, i64 0
  %83 = load i32, ptr %82, align 4
  %84 = sext i32 %83 to i64
  %85 = getelementptr inbounds %struct._zval_struct, ptr %78, i64 %84
  %86 = load ptr, ptr %10, align 8
  %87 = getelementptr inbounds %struct._zend_ssa, ptr %86, i32 0, i32 5
  %88 = load ptr, ptr %87, align 8
  %89 = load ptr, ptr %8, align 8
  %90 = getelementptr inbounds %struct._zend_ssa_phi, ptr %89, i32 0, i32 4
  %91 = load i32, ptr %90, align 4
  %92 = sext i32 %91 to i64
  %93 = getelementptr inbounds %struct._zend_ssa_var, ptr %88, i64 %92
  %94 = getelementptr inbounds %struct._zend_ssa_var, ptr %93, i32 0, i32 7
  %95 = load i8, ptr %94, align 8
  %96 = lshr i8 %95, 4
  %97 = and i8 %96, 3
  %98 = zext i8 %97 to i32
  %99 = icmp ne i32 %98, 1
  call void @join_phi_values(ptr noundef %14, ptr noundef %85, i1 noundef zeroext %99)
  br label %100

100:                                              ; preds = %75, %60
  br label %160

101:                                              ; preds = %36
  store i32 0, ptr %13, align 4
  br label %102

102:                                              ; preds = %156, %101
  %103 = load i32, ptr %13, align 4
  %104 = load ptr, ptr %11, align 8
  %105 = getelementptr inbounds %struct._zend_basic_block, ptr %104, i32 0, i32 5
  %106 = load i32, ptr %105, align 8
  %107 = icmp slt i32 %103, %106
  br i1 %107, label %108, label %159

108:                                              ; preds = %102
  %109 = load ptr, ptr %8, align 8
  %110 = getelementptr inbounds %struct._zend_ssa_phi, ptr %109, i32 0, i32 9
  %111 = load ptr, ptr %110, align 8
  %112 = load i32, ptr %13, align 4
  %113 = sext i32 %112 to i64
  %114 = getelementptr inbounds i32, ptr %111, i64 %113
  %115 = load i32, ptr %114, align 4
  %116 = icmp sge i32 %115, 0
  call void @llvm.assume(i1 %116)
  %117 = load ptr, ptr %7, align 8
  %118 = load ptr, ptr %12, align 8
  %119 = load i32, ptr %13, align 4
  %120 = sext i32 %119 to i64
  %121 = getelementptr inbounds i32, ptr %118, i64 %120
  %122 = load i32, ptr %121, align 4
  %123 = load ptr, ptr %8, align 8
  %124 = getelementptr inbounds %struct._zend_ssa_phi, ptr %123, i32 0, i32 5
  %125 = load i32, ptr %124, align 8
  %126 = call zeroext i1 @scdf_is_edge_feasible(ptr noundef %117, i32 noundef %122, i32 noundef %125)
  br i1 %126, label %127, label %154

127:                                              ; preds = %108
  %128 = load ptr, ptr %9, align 8
  %129 = getelementptr inbounds %struct._sccp_ctx, ptr %128, i32 0, i32 2
  %130 = load ptr, ptr %129, align 8
  %131 = load ptr, ptr %8, align 8
  %132 = getelementptr inbounds %struct._zend_ssa_phi, ptr %131, i32 0, i32 9
  %133 = load ptr, ptr %132, align 8
  %134 = load i32, ptr %13, align 4
  %135 = sext i32 %134 to i64
  %136 = getelementptr inbounds i32, ptr %133, i64 %135
  %137 = load i32, ptr %136, align 4
  %138 = sext i32 %137 to i64
  %139 = getelementptr inbounds %struct._zval_struct, ptr %130, i64 %138
  %140 = load ptr, ptr %10, align 8
  %141 = getelementptr inbounds %struct._zend_ssa, ptr %140, i32 0, i32 5
  %142 = load ptr, ptr %141, align 8
  %143 = load ptr, ptr %8, align 8
  %144 = getelementptr inbounds %struct._zend_ssa_phi, ptr %143, i32 0, i32 4
  %145 = load i32, ptr %144, align 4
  %146 = sext i32 %145 to i64
  %147 = getelementptr inbounds %struct._zend_ssa_var, ptr %142, i64 %146
  %148 = getelementptr inbounds %struct._zend_ssa_var, ptr %147, i32 0, i32 7
  %149 = load i8, ptr %148, align 8
  %150 = lshr i8 %149, 4
  %151 = and i8 %150, 3
  %152 = zext i8 %151 to i32
  %153 = icmp ne i32 %152, 1
  call void @join_phi_values(ptr noundef %14, ptr noundef %139, i1 noundef zeroext %153)
  br label %155

154:                                              ; preds = %108
  br label %155

155:                                              ; preds = %154, %127
  br label %156

156:                                              ; preds = %155
  %157 = load i32, ptr %13, align 4
  %158 = add nsw i32 %157, 1
  store i32 %158, ptr %13, align 4
  br label %102

159:                                              ; preds = %102
  br label %160

160:                                              ; preds = %159, %100
  %161 = load ptr, ptr %7, align 8
  %162 = load ptr, ptr %9, align 8
  %163 = load ptr, ptr %8, align 8
  %164 = getelementptr inbounds %struct._zend_ssa_phi, ptr %163, i32 0, i32 4
  %165 = load i32, ptr %164, align 4
  call void @set_value(ptr noundef %161, ptr noundef %162, i32 noundef %165, ptr noundef %14)
  store ptr %14, ptr %5, align 8
  %166 = load ptr, ptr %5, align 8
  %167 = getelementptr inbounds %struct._zval_struct, ptr %166, i32 0, i32 1
  %168 = getelementptr inbounds %struct.anon.1, ptr %167, i32 0, i32 1
  %169 = load i8, ptr %168, align 1
  %170 = zext i8 %169 to i32
  %171 = icmp ne i32 %170, 0
  br i1 %171, label %172, label %192

172:                                              ; preds = %160
  %173 = load ptr, ptr %5, align 8
  store ptr %173, ptr %4, align 8
  %174 = load ptr, ptr %4, align 8
  %175 = getelementptr inbounds %struct._zval_struct, ptr %174, i32 0, i32 1
  %176 = getelementptr inbounds %struct.anon.1, ptr %175, i32 0, i32 1
  %177 = load i8, ptr %176, align 1
  %178 = zext i8 %177 to i32
  %179 = icmp ne i32 %178, 0
  call void @llvm.assume(i1 %179)
  %180 = load ptr, ptr %4, align 8
  %181 = load ptr, ptr %180, align 8
  store ptr %181, ptr %3, align 8
  %182 = load ptr, ptr %3, align 8
  %183 = load i32, ptr %182, align 4
  %184 = icmp ugt i32 %183, 0
  call void @llvm.assume(i1 %184)
  %185 = load ptr, ptr %3, align 8
  %186 = load i32, ptr %185, align 4
  %187 = add i32 %186, -1
  store i32 %187, ptr %185, align 4
  %188 = icmp ne i32 %187, 0
  br i1 %188, label %192, label %189

189:                                              ; preds = %172
  %190 = load ptr, ptr %5, align 8
  %191 = load ptr, ptr %190, align 8
  call void @rc_dtor_func(ptr noundef %191) #10
  br label %192

192:                                              ; preds = %189, %172, %160
  br label %193

193:                                              ; preds = %192, %2
  ret void
}