; Function Attrs: nounwind uwtable
define internal void @sccp_visit_phi(ptr nocapture noundef readonly %0, ptr nocapture noundef readonly %1) #0 {
  %3 = alloca %struct._zval_struct, align 8
  %4 = getelementptr inbounds i8, ptr %0, i64 8
  %5 = load ptr, ptr %4, align 8
  %6 = getelementptr inbounds i8, ptr %1, i64 68
  %7 = load i32, ptr %6, align 4
  %8 = icmp sgt i32 %7, -1
  tail call void @llvm.assume(i1 %8)
  %9 = getelementptr inbounds i8, ptr %0, i64 104
  %10 = load ptr, ptr %9, align 8
  %11 = zext nneg i32 %7 to i64
  %12 = getelementptr inbounds %struct._zval_struct, ptr %10, i64 %11, i32 1
  %13 = load i8, ptr %12, align 8
  %14 = icmp eq i8 %13, -2
  br i1 %14, label %132, label %15

15:                                               ; preds = %2
  %16 = getelementptr inbounds i8, ptr %5, i64 8
  %17 = load ptr, ptr %16, align 8
  %18 = getelementptr inbounds i8, ptr %1, i64 72
  %19 = load i32, ptr %18, align 8
  %20 = sext i32 %19 to i64
  %21 = getelementptr inbounds %struct._zend_basic_block, ptr %17, i64 %20
  %22 = getelementptr inbounds i8, ptr %5, i64 16
  %23 = load ptr, ptr %22, align 8
  %24 = getelementptr inbounds i8, ptr %21, i64 28
  %25 = load i32, ptr %24, align 4
  %26 = sext i32 %25 to i64
  %27 = getelementptr inbounds i32, ptr %23, i64 %26
  %28 = getelementptr inbounds i8, ptr %3, i64 8
  store i32 255, ptr %28, align 8
  %29 = getelementptr inbounds i8, ptr %1, i64 8
  %30 = load i32, ptr %29, align 8
  %31 = icmp sgt i32 %30, -1
  br i1 %31, label %38, label %.preheader

.preheader:                                       ; preds = %15
  %32 = getelementptr inbounds i8, ptr %21, i64 24
  %33 = load i32, ptr %32, align 8
  %34 = icmp sgt i32 %33, 0
  br i1 %34, label %.lr.ph, label %.loopexit

.lr.ph:                                           ; preds = %.preheader
  %35 = getelementptr inbounds i8, ptr %1, i64 96
  %36 = getelementptr inbounds i8, ptr %0, i64 48
  %37 = getelementptr inbounds i8, ptr %5, i64 64
  br label %71

38:                                               ; preds = %15
  %39 = getelementptr inbounds i8, ptr %1, i64 96
  %40 = load ptr, ptr %39, align 8
  %41 = load i32, ptr %40, align 4
  %42 = icmp sgt i32 %41, -1
  tail call void @llvm.assume(i1 %42)
  %43 = getelementptr inbounds i8, ptr %21, i64 24
  %44 = load i32, ptr %43, align 8
  %45 = sext i32 %44 to i64
  br label %46

46:                                               ; preds = %46, %38
  %indvars.iv.i.i = phi i64 [ %indvars.iv.next.i.i, %46 ], [ 0, %38 ]
  %47 = icmp slt i64 %indvars.iv.i.i, %45
  tail call void @llvm.assume(i1 %47)
  %48 = trunc i64 %indvars.iv.i.i to i32
  %49 = add i32 %25, %48
  %50 = zext i32 %49 to i64
  %51 = getelementptr inbounds i32, ptr %23, i64 %50
  %52 = load i32, ptr %51, align 4
  %53 = icmp eq i32 %52, %30
  %indvars.iv.next.i.i = add nuw nsw i64 %indvars.iv.i.i, 1
  br i1 %53, label %scdf_is_edge_feasible.exit, label %46

scdf_is_edge_feasible.exit:                       ; preds = %46
  %54 = getelementptr inbounds i8, ptr %0, i64 48
  %55 = load ptr, ptr %54, align 8
  %56 = lshr i64 %50, 6
  %57 = getelementptr inbounds i64, ptr %55, i64 %56
  %58 = load i64, ptr %57, align 8
  %59 = and i64 %50, 63
  %60 = shl nuw i64 1, %59
  %61 = and i64 %58, %60
  %.not48 = icmp eq i64 %61, 0
  br i1 %.not48, label %.loopexit, label %62

62:                                               ; preds = %scdf_is_edge_feasible.exit
  %63 = zext nneg i32 %41 to i64
  %64 = getelementptr inbounds %struct._zval_struct, ptr %10, i64 %63
  %65 = getelementptr inbounds i8, ptr %5, i64 64
  %66 = load ptr, ptr %65, align 8
  %67 = getelementptr inbounds %struct._zend_ssa_var, ptr %66, i64 %11, i32 7
  %68 = load i8, ptr %67, align 8
  %69 = and i8 %68, 48
  %70 = icmp ne i8 %69, 16
  call fastcc void @join_phi_values(ptr noundef nonnull %3, ptr noundef %64, i1 noundef zeroext %70)
  br label %.loopexit

71:                                               ; preds = %.lr.ph, %118
  %72 = phi i32 [ %33, %.lr.ph ], [ %119, %118 ]
  %indvars.iv = phi i64 [ 0, %.lr.ph ], [ %indvars.iv.next, %118 ]
  %73 = load ptr, ptr %35, align 8
  %74 = getelementptr inbounds i32, ptr %73, i64 %indvars.iv
  %75 = load i32, ptr %74, align 4
  %76 = icmp sgt i32 %75, -1
  call void @llvm.assume(i1 %76)
  %77 = getelementptr inbounds i32, ptr %27, i64 %indvars.iv
  %78 = load i32, ptr %77, align 4
  %79 = load i32, ptr %18, align 8
  %80 = load ptr, ptr %4, align 8
  %81 = getelementptr inbounds i8, ptr %80, i64 8
  %82 = load ptr, ptr %81, align 8
  %83 = sext i32 %79 to i64
  %84 = getelementptr inbounds %struct._zend_basic_block, ptr %82, i64 %83
  %85 = getelementptr inbounds i8, ptr %84, i64 24
  %86 = load i32, ptr %85, align 8
  %87 = getelementptr inbounds i8, ptr %84, i64 28
  %88 = load i32, ptr %87, align 4
  %89 = getelementptr inbounds i8, ptr %80, i64 16
  %90 = load ptr, ptr %89, align 8
  %91 = sext i32 %86 to i64
  br label %92

92:                                               ; preds = %92, %71
  %indvars.iv.i.i44 = phi i64 [ %indvars.iv.next.i.i45, %92 ], [ 0, %71 ]
  %93 = icmp slt i64 %indvars.iv.i.i44, %91
  call void @llvm.assume(i1 %93)
  %94 = trunc i64 %indvars.iv.i.i44 to i32
  %95 = add i32 %88, %94
  %96 = zext i32 %95 to i64
  %97 = getelementptr inbounds i32, ptr %90, i64 %96
  %98 = load i32, ptr %97, align 4
  %99 = icmp eq i32 %98, %78
  %indvars.iv.next.i.i45 = add nuw nsw i64 %indvars.iv.i.i44, 1
  br i1 %99, label %scdf_is_edge_feasible.exit46, label %92

scdf_is_edge_feasible.exit46:                     ; preds = %92
  %100 = load ptr, ptr %36, align 8
  %101 = lshr i64 %96, 6
  %102 = getelementptr inbounds i64, ptr %100, i64 %101
  %103 = load i64, ptr %102, align 8
  %104 = and i64 %96, 63
  %105 = shl nuw i64 1, %104
  %106 = and i64 %103, %105
  %.not47 = icmp eq i64 %106, 0
  br i1 %.not47, label %118, label %107

107:                                              ; preds = %scdf_is_edge_feasible.exit46
  %108 = load ptr, ptr %9, align 8
  %109 = zext nneg i32 %75 to i64
  %110 = getelementptr inbounds %struct._zval_struct, ptr %108, i64 %109
  %111 = load ptr, ptr %37, align 8
  %112 = load i32, ptr %6, align 4
  %113 = sext i32 %112 to i64
  %114 = getelementptr inbounds %struct._zend_ssa_var, ptr %111, i64 %113, i32 7
  %115 = load i8, ptr %114, align 8
  %116 = and i8 %115, 48
  %117 = icmp ne i8 %116, 16
  call fastcc void @join_phi_values(ptr noundef nonnull %3, ptr noundef %110, i1 noundef zeroext %117)
  %.pre = load i32, ptr %32, align 8
  br label %118

118:                                              ; preds = %107, %scdf_is_edge_feasible.exit46
  %119 = phi i32 [ %.pre, %107 ], [ %72, %scdf_is_edge_feasible.exit46 ]
  %indvars.iv.next = add nuw nsw i64 %indvars.iv, 1
  %120 = sext i32 %119 to i64
  %121 = icmp slt i64 %indvars.iv.next, %120
  br i1 %121, label %71, label %.loopexit

.loopexit:                                        ; preds = %118, %.preheader, %scdf_is_edge_feasible.exit, %62
  %122 = load i32, ptr %6, align 4
  %.val = load ptr, ptr %9, align 8
  call fastcc void @set_value(ptr noundef nonnull %0, ptr %.val, i32 noundef %122, ptr noundef nonnull %3)
  %123 = getelementptr inbounds i8, ptr %3, i64 9
  %124 = load i8, ptr %123, align 1
  %.not = icmp eq i8 %124, 0
  br i1 %.not, label %132, label %125

125:                                              ; preds = %.loopexit
  %126 = load ptr, ptr %3, align 8
  %127 = load i32, ptr %126, align 4
  %128 = icmp ne i32 %127, 0
  call void @llvm.assume(i1 %128)
  %129 = add i32 %127, -1
  store i32 %129, ptr %126, align 4
  %.not43 = icmp eq i32 %129, 0
  br i1 %.not43, label %130, label %132

130:                                              ; preds = %125
  %131 = load ptr, ptr %3, align 8
  call void @rc_dtor_func(ptr noundef %131) #13
  br label %132

132:                                              ; preds = %.loopexit, %125, %130, %2
  ret void
}